target datalayout = "e-m:e-p270:32:32-p271:32:32-p272:64:64-i64:64-i128:128-f80:128-n8:16:32:64-S128"
target triple = "x86_64-pc-linux-gnu"

%"class.std::__cxx11::basic_string" = type { %"struct.std::__cxx11::basic_string<char>::_Alloc_hider", i64, %union.anon }
%"struct.std::__cxx11::basic_string<char>::_Alloc_hider" = type { ptr }
%union.anon = type { i64, [8 x i8] }
%"class.Assimp::Exporter" = type { ptr }
%"class.Assimp::ExporterPimpl" = type { ptr, %"class.std::shared_ptr", i8, ptr, i8, %"class.std::vector.11", %"class.std::__cxx11::basic_string", %"class.std::vector.16" }
%"class.std::shared_ptr" = type { %"class.std::__shared_ptr" }
%"class.std::__shared_ptr" = type { ptr, %"class.std::__shared_count" }
%"class.std::__shared_count" = type { ptr }
%"class.std::vector.11" = type { %"struct.std::_Vector_base.12" }
%"struct.std::_Vector_base.12" = type { %"struct.std::_Vector_base<Assimp::BaseProcess *, std::allocator<Assimp::BaseProcess *>>::_Vector_impl" }
%"struct.std::_Vector_base<Assimp::BaseProcess *, std::allocator<Assimp::BaseProcess *>>::_Vector_impl" = type { %"struct.std::_Vector_base<Assimp::BaseProcess *, std::allocator<Assimp::BaseProcess *>>::_Vector_impl_data" }
%"struct.std::_Vector_base<Assimp::BaseProcess *, std::allocator<Assimp::BaseProcess *>>::_Vector_impl_data" = type { ptr, ptr, ptr }
%"class.std::vector.16" = type { %"struct.std::_Vector_base.17" }
%"struct.std::_Vector_base.17" = type { %"struct.std::_Vector_base<Assimp::Exporter::ExportFormatEntry, std::allocator<Assimp::Exporter::ExportFormatEntry>>::_Vector_impl" }
%"struct.std::_Vector_base<Assimp::Exporter::ExportFormatEntry, std::allocator<Assimp::Exporter::ExportFormatEntry>>::_Vector_impl" = type { %"struct.std::_Vector_base<Assimp::Exporter::ExportFormatEntry, std::allocator<Assimp::Exporter::ExportFormatEntry>>::_Vector_impl_data" }
%"struct.std::_Vector_base<Assimp::Exporter::ExportFormatEntry, std::allocator<Assimp::Exporter::ExportFormatEntry>>::_Vector_impl_data" = type { ptr, ptr, ptr }
%"struct.Assimp::Exporter::ExportFormatEntry" = type <{ %struct.aiExportFormatDesc, ptr, i32, [4 x i8] }>
%struct.aiExportFormatDesc = type { ptr, ptr, ptr }

; Function Attrs: mustprogress nounwind uwtable
define linkonce_odr noundef nonnull align 8 dereferenceable(36) ptr @_ZNSt6vectorIN6Assimp8Exporter17ExportFormatEntryESaIS2_EEixEm(ptr noundef nonnull align 8 dereferenceable(24) %0, i64 noundef %1) #1 comdat align 2 {
  %3 = alloca ptr, align 8
  %4 = alloca i64, align 8
  store ptr %0, ptr %3, align 8
  store i64 %1, ptr %4, align 8
  %5 = load ptr, ptr %3, align 8
  %6 = getelementptr inbounds nuw %"struct.std::_Vector_base.17", ptr %5, i32 0, i32 0
  %7 = getelementptr inbounds nuw %"struct.std::_Vector_base<Assimp::Exporter::ExportFormatEntry, std::allocator<Assimp::Exporter::ExportFormatEntry>>::_Vector_impl_data", ptr %6, i32 0, i32 0
  %8 = load ptr, ptr %7, align 8
  %9 = load i64, ptr %4, align 8
  %10 = getelementptr inbounds nuw %"struct.Assimp::Exporter::ExportFormatEntry", ptr %8, i64 %9
  ret ptr %10
}

; Function Attrs: mustprogress nounwind uwtable
define linkonce_odr noundef i64 @_ZNKSt6vectorIN6Assimp8Exporter17ExportFormatEntryESaIS2_EE4sizeEv(ptr noundef nonnull align 8 dereferenceable(24) %0) #1 comdat align 2 {
  %2 = alloca ptr, align 8
  store ptr %0, ptr %2, align 8
  %3 = load ptr, ptr %2, align 8
  %4 = getelementptr inbounds nuw %"struct.std::_Vector_base.17", ptr %3, i32 0, i32 0
  %5 = getelementptr inbounds nuw %"struct.std::_Vector_base<Assimp::Exporter::ExportFormatEntry, std::allocator<Assimp::Exporter::ExportFormatEntry>>::_Vector_impl_data", ptr %4, i32 0, i32 1
  %6 = load ptr, ptr %5, align 8
  %7 = getelementptr inbounds nuw %"struct.std::_Vector_base.17", ptr %3, i32 0, i32 0
  %8 = getelementptr inbounds nuw %"struct.std::_Vector_base<Assimp::Exporter::ExportFormatEntry, std::allocator<Assimp::Exporter::ExportFormatEntry>>::_Vector_impl_data", ptr %7, i32 0, i32 0
  %9 = load ptr, ptr %8, align 8
  %10 = ptrtoint ptr %6 to i64
  %11 = ptrtoint ptr %9 to i64
  %12 = sub i64 %10, %11
  %13 = sdiv exact i64 %12, 40
  ret i64 %13
}

; Function Attrs: mustprogress nounwind uwtable
define noundef i64 @_ZNK6Assimp8Exporter20GetExportFormatCountEv(ptr noundef nonnull align 8 dereferenceable(8) %0) #1 align 2 {
  %2 = alloca ptr, align 8
  store ptr %0, ptr %2, align 8
  %3 = load ptr, ptr %2, align 8
  %4 = getelementptr inbounds nuw %"class.Assimp::Exporter", ptr %3, i32 0, i32 0
  %5 = load ptr, ptr %4, align 8
  %6 = getelementptr inbounds nuw %"class.Assimp::ExporterPimpl", ptr %5, i32 0, i32 7
  %7 = call noundef i64 @_ZNKSt6vectorIN6Assimp8Exporter17ExportFormatEntryESaIS2_EE4sizeEv(ptr noundef nonnull align 8 dereferenceable(24) %6) #23
  ret i64 %7
}

; Function Attrs: mustprogress nounwind uwtable
define noundef ptr @_ZNK6Assimp8Exporter26GetExportFormatDescriptionEm(ptr noundef nonnull align 8 dereferenceable(8) %0, i64 noundef %1) #1 align 2 {
  %3 = alloca ptr, align 8
  %4 = alloca ptr, align 8
  %5 = alloca i64, align 8
  store ptr %0, ptr %4, align 8
  store i64 %1, ptr %5, align 8
  %6 = load ptr, ptr %4, align 8
  %7 = load i64, ptr %5, align 8
  %8 = call noundef i64 @_ZNK6Assimp8Exporter20GetExportFormatCountEv(ptr noundef nonnull align 8 dereferenceable(8) %6)
  %9 = icmp uge i64 %7, %8
  br i1 %9, label %10, label %11

10:                                               ; preds = %2
  store ptr null, ptr %3, align 8
  br label %32

11:                                               ; preds = %2
  %12 = load i64, ptr %5, align 8
  %13 = getelementptr inbounds nuw %"class.Assimp::Exporter", ptr %6, i32 0, i32 0
  %14 = load ptr, ptr %13, align 8
  %15 = getelementptr inbounds nuw %"class.Assimp::ExporterPimpl", ptr %14, i32 0, i32 7
  %16 = call noundef i64 @_ZNKSt6vectorIN6Assimp8Exporter17ExportFormatEntryESaIS2_EE4sizeEv(ptr noundef nonnull align 8 dereferenceable(24) %15) #23
  %17 = icmp ult i64 %12, %16
  br i1 %17, label %18, label %25

18:                                               ; preds = %11
  %19 = getelementptr inbounds nuw %"class.Assimp::Exporter", ptr %6, i32 0, i32 0
  %20 = load ptr, ptr %19, align 8
  %21 = getelementptr inbounds nuw %"class.Assimp::ExporterPimpl", ptr %20, i32 0, i32 7
  %22 = load i64, ptr %5, align 8
  %23 = call noundef nonnull align 8 dereferenceable(36) ptr @_ZNSt6vectorIN6Assimp8Exporter17ExportFormatEntryESaIS2_EEixEm(ptr noundef nonnull align 8 dereferenceable(24) %21, i64 noundef %22) #23
  %24 = getelementptr inbounds nuw %"struct.Assimp::Exporter::ExportFormatEntry", ptr %23, i32 0, i32 0
  store ptr %24, ptr %3, align 8
  br label %32

25:                                               ; preds = %11
  %26 = getelementptr inbounds nuw %"class.Assimp::Exporter", ptr %6, i32 0, i32 0
  %27 = load ptr, ptr %26, align 8
  %28 = getelementptr inbounds nuw %"class.Assimp::ExporterPimpl", ptr %27, i32 0, i32 7
  %29 = load i64, ptr %5, align 8
  %30 = call noundef nonnull align 8 dereferenceable(36) ptr @_ZNSt6vectorIN6Assimp8Exporter17ExportFormatEntryESaIS2_EEixEm(ptr noundef nonnull align 8 dereferenceable(24) %28, i64 noundef %29) #23
  %31 = getelementptr inbounds nuw %"struct.Assimp::Exporter::ExportFormatEntry", ptr %30, i32 0, i32 0
  store ptr %31, ptr %3, align 8
  br label %32

32:                                               ; preds = %25, %18, %10
  %33 = load ptr, ptr %3, align 8
  ret ptr %33
}