; Function Attrs: mustprogress nofree norecurse nosync nounwind willreturn memory(read, inaccessiblemem: none) uwtable
define noundef ptr @_ZNK6Assimp8Exporter26GetExportFormatDescriptionEm(ptr noundef nonnull readonly align 8 captures(none) dereferenceable(8) %0, i64 noundef %1) local_unnamed_addr #9 align 2 {
  %3 = load ptr, ptr %0, align 8
  %4 = getelementptr inbounds nuw i8, ptr %3, i64 104
  %5 = getelementptr inbounds nuw i8, ptr %3, i64 112
  %6 = load ptr, ptr %5, align 8
  %7 = load ptr, ptr %4, align 8
  %8 = ptrtoint ptr %6 to i64
  %9 = ptrtoint ptr %7 to i64
  %10 = sub i64 %8, %9
  %11 = sdiv exact i64 %10, 40
  %.not = icmp ult i64 %1, %11
  %12 = getelementptr inbounds nuw %"struct.Assimp::Exporter::ExportFormatEntry", ptr %7, i64 %1
  %.0 = select i1 %.not, ptr %12, ptr null
  ret ptr %.0
}